target datalayout = "e-m:e-p270:32:32-p271:32:32-p272:64:64-i64:64-i128:128-f80:128-n8:16:32:64-S128"
target triple = "x86_64-pc-linux-gnu"

%struct.hwloc_topology = type { i32, i32, i32, ptr, ptr, i64, [20 x i32], [20 x i32], i64, i64, i32, ptr, i64, ptr, i64, [6 x %struct.hwloc_special_level_s], ptr, ptr, %struct.hwloc_binding_hooks, %struct.hwloc_topology_support, %struct.hwloc_infos_s, ptr, ptr, i32, ptr, ptr, i32, i32, ptr, i32, i32, ptr, i32, i32, i32, [5 x float], i32, ptr, ptr, i32, i32, ptr, i32, %struct.hwloc_numanode_attr_s, i32, i32, ptr, i64, i32, ptr, ptr, ptr }
%struct.hwloc_special_level_s = type { i32, ptr, ptr, ptr }
%struct.hwloc_binding_hooks = type { ptr, ptr, ptr, ptr, ptr, ptr, ptr, ptr, ptr, ptr, ptr, ptr, ptr, ptr, ptr, ptr, ptr, ptr, ptr, ptr, ptr, ptr, ptr, ptr }
%struct.hwloc_topology_support = type { ptr, ptr, ptr, ptr }
%struct.hwloc_infos_s = type { ptr, i32, i32 }
%struct.hwloc_numanode_attr_s = type { i64, i32, ptr }
%struct.hwloc_internal_distances_s = type { ptr, i32, i32, ptr, i32, ptr, ptr, i64, i32, ptr, ptr, ptr }
%struct.hwloc_distances_container_s = type { i32, %struct.hwloc_distances_s }
%struct.hwloc_distances_s = type { i32, ptr, i64, ptr }

; Function Attrs: nounwind uwtable
define void @hwloc_distances_release(ptr noundef %0, ptr noundef %1) #0 {
  %3 = alloca ptr, align 8
  %4 = alloca ptr, align 8
  %5 = alloca ptr, align 8
  store ptr %0, ptr %3, align 8, !tbaa !3
  store ptr %1, ptr %4, align 8, !tbaa !70
  call void @llvm.lifetime.start.p0(i64 8, ptr %5) #15
  %6 = load ptr, ptr %4, align 8, !tbaa !70
  %7 = getelementptr inbounds i8, ptr %6, i64 sub (i64 0, i64 ptrtoint (ptr getelementptr inbounds nuw (%struct.hwloc_distances_container_s, ptr null, i32 0, i32 1) to i64))
  store ptr %7, ptr %5, align 8, !tbaa !72
  %8 = load ptr, ptr %4, align 8, !tbaa !70
  %9 = getelementptr inbounds nuw %struct.hwloc_distances_s, ptr %8, i32 0, i32 3
  %10 = load ptr, ptr %9, align 8, !tbaa !78
  call void @free(ptr noundef %10) #15
  %11 = load ptr, ptr %4, align 8, !tbaa !70
  %12 = getelementptr inbounds nuw %struct.hwloc_distances_s, ptr %11, i32 0, i32 1
  %13 = load ptr, ptr %12, align 8, !tbaa !79
  call void @free(ptr noundef %13) #15
  %14 = load ptr, ptr %5, align 8, !tbaa !72
  call void @free(ptr noundef %14) #15
  call void @llvm.lifetime.end.p0(i64 8, ptr %5) #15
  ret void
}

; Function Attrs: nounwind uwtable
define internal void @hwloc_internal_distances_free(ptr noundef %0) #0 {
  %2 = alloca ptr, align 8
  store ptr %0, ptr %2, align 8, !tbaa !46
  %3 = load ptr, ptr %2, align 8, !tbaa !46
  %4 = getelementptr inbounds nuw %struct.hwloc_internal_distances_s, ptr %3, i32 0, i32 0
  %5 = load ptr, ptr %4, align 8, !tbaa !53
  call void @free(ptr noundef %5) #15
  %6 = load ptr, ptr %2, align 8, !tbaa !46
  %7 = getelementptr inbounds nuw %struct.hwloc_internal_distances_s, ptr %6, i32 0, i32 3
  %8 = load ptr, ptr %7, align 8, !tbaa !54
  call void @free(ptr noundef %8) #15
  %9 = load ptr, ptr %2, align 8, !tbaa !46
  %10 = getelementptr inbounds nuw %struct.hwloc_internal_distances_s, ptr %9, i32 0, i32 5
  %11 = load ptr, ptr %10, align 8, !tbaa !55
  call void @free(ptr noundef %11) #15
  %12 = load ptr, ptr %2, align 8, !tbaa !46
  %13 = getelementptr inbounds nuw %struct.hwloc_internal_distances_s, ptr %12, i32 0, i32 9
  %14 = load ptr, ptr %13, align 8, !tbaa !56
  call void @free(ptr noundef %14) #15
  %15 = load ptr, ptr %2, align 8, !tbaa !46
  %16 = getelementptr inbounds nuw %struct.hwloc_internal_distances_s, ptr %15, i32 0, i32 6
  %17 = load ptr, ptr %16, align 8, !tbaa !57
  call void @free(ptr noundef %17) #15
  %18 = load ptr, ptr %2, align 8, !tbaa !46
  call void @free(ptr noundef %18) #15
  ret void
}

; Function Attrs: nounwind uwtable
define internal ptr @hwloc__internal_distances_from_public(ptr noundef %0, ptr noundef %1) #0 {
  %3 = alloca ptr, align 8
  %4 = alloca ptr, align 8
  %5 = alloca ptr, align 8
  %6 = alloca ptr, align 8
  %7 = alloca ptr, align 8
  %8 = alloca i32, align 4
  store ptr %0, ptr %4, align 8, !tbaa !3
  store ptr %1, ptr %5, align 8, !tbaa !70
  call void @llvm.lifetime.start.p0(i64 8, ptr %6) #15
  %9 = load ptr, ptr %5, align 8, !tbaa !70
  %10 = getelementptr inbounds i8, ptr %9, i64 sub (i64 0, i64 ptrtoint (ptr getelementptr inbounds nuw (%struct.hwloc_distances_container_s, ptr null, i32 0, i32 1) to i64))
  store ptr %10, ptr %6, align 8, !tbaa !72
  call void @llvm.lifetime.start.p0(i64 8, ptr %7) #15
  %11 = load ptr, ptr %4, align 8, !tbaa !3
  %12 = getelementptr inbounds nuw %struct.hwloc_topology, ptr %11, i32 0, i32 24
  %13 = load ptr, ptr %12, align 8, !tbaa !33
  store ptr %13, ptr %7, align 8, !tbaa !46
  br label %14

14:                                               ; preds = %28, %2
  %15 = load ptr, ptr %7, align 8, !tbaa !46
  %16 = icmp ne ptr %15, null
  br i1 %16, label %17, label %32

17:                                               ; preds = %14
  %18 = load ptr, ptr %7, align 8, !tbaa !46
  %19 = getelementptr inbounds nuw %struct.hwloc_internal_distances_s, ptr %18, i32 0, i32 1
  %20 = load i32, ptr %19, align 8, !tbaa !64
  %21 = load ptr, ptr %6, align 8, !tbaa !72
  %22 = getelementptr inbounds nuw %struct.hwloc_distances_container_s, ptr %21, i32 0, i32 0
  %23 = load i32, ptr %22, align 8, !tbaa !74
  %24 = icmp eq i32 %20, %23
  br i1 %24, label %25, label %27

25:                                               ; preds = %17
  %26 = load ptr, ptr %7, align 8, !tbaa !46
  store ptr %26, ptr %3, align 8
  store i32 1, ptr %8, align 4
  br label %33

27:                                               ; preds = %17
  br label %28

28:                                               ; preds = %27
  %29 = load ptr, ptr %7, align 8, !tbaa !46
  %30 = getelementptr inbounds nuw %struct.hwloc_internal_distances_s, ptr %29, i32 0, i32 11
  %31 = load ptr, ptr %30, align 8, !tbaa !47
  store ptr %31, ptr %7, align 8, !tbaa !46
  br label %14, !llvm.loop !77

32:                                               ; preds = %14
  store ptr null, ptr %3, align 8
  store i32 1, ptr %8, align 4
  br label %33

33:                                               ; preds = %32, %25
  call void @llvm.lifetime.end.p0(i64 8, ptr %7) #15
  call void @llvm.lifetime.end.p0(i64 8, ptr %6) #15
  %34 = load ptr, ptr %3, align 8
  ret ptr %34
}

; Function Attrs: nounwind uwtable
define i32 @hwloc_distances_release_remove(ptr noundef %0, ptr noundef %1) #0 {
  %3 = alloca i32, align 4
  %4 = alloca ptr, align 8
  %5 = alloca ptr, align 8
  %6 = alloca ptr, align 8
  %7 = alloca i32, align 4
  store ptr %0, ptr %4, align 8, !tbaa !3
  store ptr %1, ptr %5, align 8, !tbaa !70
  call void @llvm.lifetime.start.p0(i64 8, ptr %6) #15
  %8 = load ptr, ptr %4, align 8, !tbaa !3
  %9 = load ptr, ptr %5, align 8, !tbaa !70
  %10 = call ptr @hwloc__internal_distances_from_public(ptr noundef %8, ptr noundef %9)
  store ptr %10, ptr %6, align 8, !tbaa !46
  %11 = load ptr, ptr %6, align 8, !tbaa !46
  %12 = icmp ne ptr %11, null
  br i1 %12, label %15, label %13

13:                                               ; preds = %2
  %14 = call ptr @__errno_location() #17
  store i32 22, ptr %14, align 4, !tbaa !38
  store i32 -1, ptr %3, align 4
  store i32 1, ptr %7, align 4
  br label %57

15:                                               ; preds = %2
  %16 = load ptr, ptr %6, align 8, !tbaa !46
  %17 = getelementptr inbounds nuw %struct.hwloc_internal_distances_s, ptr %16, i32 0, i32 10
  %18 = load ptr, ptr %17, align 8, !tbaa !66
  %19 = icmp ne ptr %18, null
  br i1 %19, label %20, label %28

20:                                               ; preds = %15
  %21 = load ptr, ptr %6, align 8, !tbaa !46
  %22 = getelementptr inbounds nuw %struct.hwloc_internal_distances_s, ptr %21, i32 0, i32 11
  %23 = load ptr, ptr %22, align 8, !tbaa !47
  %24 = load ptr, ptr %6, align 8, !tbaa !46
  %25 = getelementptr inbounds nuw %struct.hwloc_internal_distances_s, ptr %24, i32 0, i32 10
  %26 = load ptr, ptr %25, align 8, !tbaa !66
  %27 = getelementptr inbounds nuw %struct.hwloc_internal_distances_s, ptr %26, i32 0, i32 11
  store ptr %23, ptr %27, align 8, !tbaa !47
  br label %34

28:                                               ; preds = %15
  %29 = load ptr, ptr %6, align 8, !tbaa !46
  %30 = getelementptr inbounds nuw %struct.hwloc_internal_distances_s, ptr %29, i32 0, i32 11
  %31 = load ptr, ptr %30, align 8, !tbaa !47
  %32 = load ptr, ptr %4, align 8, !tbaa !3
  %33 = getelementptr inbounds nuw %struct.hwloc_topology, ptr %32, i32 0, i32 24
  store ptr %31, ptr %33, align 8, !tbaa !33
  br label %34

34:                                               ; preds = %28, %20
  %35 = load ptr, ptr %6, align 8, !tbaa !46
  %36 = getelementptr inbounds nuw %struct.hwloc_internal_distances_s, ptr %35, i32 0, i32 11
  %37 = load ptr, ptr %36, align 8, !tbaa !47
  %38 = icmp ne ptr %37, null
  br i1 %38, label %39, label %47

39:                                               ; preds = %34
  %40 = load ptr, ptr %6, align 8, !tbaa !46
  %41 = getelementptr inbounds nuw %struct.hwloc_internal_distances_s, ptr %40, i32 0, i32 10
  %42 = load ptr, ptr %41, align 8, !tbaa !66
  %43 = load ptr, ptr %6, align 8, !tbaa !46
  %44 = getelementptr inbounds nuw %struct.hwloc_internal_distances_s, ptr %43, i32 0, i32 11
  %45 = load ptr, ptr %44, align 8, !tbaa !47
  %46 = getelementptr inbounds nuw %struct.hwloc_internal_distances_s, ptr %45, i32 0, i32 10
  store ptr %42, ptr %46, align 8, !tbaa !66
  br label %53

47:                                               ; preds = %34
  %48 = load ptr, ptr %6, align 8, !tbaa !46
  %49 = getelementptr inbounds nuw %struct.hwloc_internal_distances_s, ptr %48, i32 0, i32 10
  %50 = load ptr, ptr %49, align 8, !tbaa !66
  %51 = load ptr, ptr %4, align 8, !tbaa !3
  %52 = getelementptr inbounds nuw %struct.hwloc_topology, ptr %51, i32 0, i32 25
  store ptr %50, ptr %52, align 8, !tbaa !8
  br label %53

53:                                               ; preds = %47, %39
  %54 = load ptr, ptr %6, align 8, !tbaa !46
  call void @hwloc_internal_distances_free(ptr noundef %54)
  %55 = load ptr, ptr %4, align 8, !tbaa !3
  %56 = load ptr, ptr %5, align 8, !tbaa !70
  call void @hwloc_distances_release(ptr noundef %55, ptr noundef %56)
  store i32 0, ptr %3, align 4
  store i32 1, ptr %7, align 4
  br label %57

57:                                               ; preds = %53, %13
  call void @llvm.lifetime.end.p0(i64 8, ptr %6) #15
  %58 = load i32, ptr %3, align 4
  ret i32 %58
}