; Function Attrs: nounwind uwtable
define range(i32 -1, 1) i32 @hwloc_distances_release_remove(ptr noundef captures(none) %0, ptr noundef captures(none) %1) local_unnamed_addr #1 {
  %3 = getelementptr inbounds nuw i8, ptr %0, i64 728
  %.09.i = load ptr, ptr %3, align 8, !tbaa !51
  %.not10.i = icmp eq ptr %.09.i, null
  br i1 %.not10.i, label %.loopexit, label %.lr.ph.i

.lr.ph.i:                                         ; preds = %2
  %4 = getelementptr inbounds i8, ptr %1, i64 -8
  %5 = load i32, ptr %4, align 8, !tbaa !66
  br label %6

6:                                                ; preds = %10, %.lr.ph.i
  %.011.i = phi ptr [ %.09.i, %.lr.ph.i ], [ %.0.i, %10 ]
  %7 = getelementptr inbounds nuw i8, ptr %.011.i, i64 8
  %8 = load i32, ptr %7, align 8, !tbaa !58
  %9 = icmp eq i32 %8, %5
  br i1 %9, label %hwloc__internal_distances_from_public.exit, label %10

10:                                               ; preds = %6
  %11 = getelementptr inbounds nuw i8, ptr %.011.i, i64 80
  %.0.i = load ptr, ptr %11, align 8, !tbaa !51
  %.not.i = icmp eq ptr %.0.i, null
  br i1 %.not.i, label %.loopexit, label %6, !llvm.loop !69

.loopexit:                                        ; preds = %10, %2
  %12 = tail call ptr @__errno_location() #30
  store i32 22, ptr %12, align 4, !tbaa !3
  br label %39

hwloc__internal_distances_from_public.exit:       ; preds = %6
  %13 = getelementptr inbounds nuw i8, ptr %.011.i, i64 72
  %14 = load ptr, ptr %13, align 8, !tbaa !61
  %.not19 = icmp eq ptr %14, null
  %15 = getelementptr inbounds nuw i8, ptr %.011.i, i64 80
  %16 = load ptr, ptr %15, align 8, !tbaa !38
  br i1 %.not19, label %19, label %17

17:                                               ; preds = %hwloc__internal_distances_from_public.exit
  %18 = getelementptr inbounds nuw i8, ptr %14, i64 80
  store ptr %16, ptr %18, align 8, !tbaa !38
  br label %20

19:                                               ; preds = %hwloc__internal_distances_from_public.exit
  store ptr %16, ptr %3, align 8, !tbaa !37
  br label %20

20:                                               ; preds = %19, %17
  %.not20 = icmp eq ptr %16, null
  br i1 %.not20, label %23, label %21

21:                                               ; preds = %20
  %22 = getelementptr inbounds nuw i8, ptr %16, i64 72
  store ptr %14, ptr %22, align 8, !tbaa !61
  br label %25

23:                                               ; preds = %20
  %24 = getelementptr inbounds nuw i8, ptr %0, i64 736
  store ptr %14, ptr %24, align 8, !tbaa !60
  br label %25

25:                                               ; preds = %23, %21
  %26 = load ptr, ptr %.011.i, align 8, !tbaa !43
  tail call void @free(ptr noundef %26) #27
  %27 = getelementptr inbounds nuw i8, ptr %.011.i, i64 16
  %28 = load ptr, ptr %27, align 8, !tbaa !44
  tail call void @free(ptr noundef %28) #27
  %29 = getelementptr inbounds nuw i8, ptr %.011.i, i64 32
  %30 = load ptr, ptr %29, align 8, !tbaa !45
  tail call void @free(ptr noundef %30) #27
  %31 = getelementptr inbounds nuw i8, ptr %.011.i, i64 64
  %32 = load ptr, ptr %31, align 8, !tbaa !46
  tail call void @free(ptr noundef %32) #27
  %33 = getelementptr inbounds nuw i8, ptr %.011.i, i64 40
  %34 = load ptr, ptr %33, align 8, !tbaa !47
  tail call void @free(ptr noundef %34) #27
  tail call void @free(ptr noundef nonnull %.011.i) #27
  %35 = getelementptr inbounds nuw i8, ptr %1, i64 24
  %36 = load ptr, ptr %35, align 8, !tbaa !70
  tail call void @free(ptr noundef %36) #27
  %37 = getelementptr inbounds nuw i8, ptr %1, i64 8
  %38 = load ptr, ptr %37, align 8, !tbaa !71
  tail call void @free(ptr noundef %38) #27
  tail call void @free(ptr noundef nonnull %4) #27
  br label %39

39:                                               ; preds = %25, %.loopexit
  %.0 = phi i32 [ 0, %25 ], [ -1, %.loopexit ]
  ret i32 %.0
}